target datalayout = "e-m:e-p270:32:32-p271:32:32-p272:64:64-i64:64-i128:128-f80:128-n8:16:32:64-S128"
target triple = "x86_64-unknown-linux-gnu"

; Function Attrs: mustprogress nounwind uwtable
define internal noundef signext i8 @_ZL9U_SUCCESS10UErrorCode(i32 noundef %code) #0 {
entry:
  %code.addr = alloca i32, align 4
  store i32 %code, ptr %code.addr, align 4
  %0 = load i32, ptr %code.addr, align 4
  %cmp = icmp sle i32 %0, 0
  %conv = zext i1 %cmp to i8
  ret i8 %conv
}

; Function Attrs: mustprogress uwtable
define void @ures_getVersionByKey_75(ptr noundef %res, ptr noundef %key, ptr noundef %ver, ptr noundef %status) #1 {
entry:
  %res.addr = alloca ptr, align 8
  %key.addr = alloca ptr, align 8
  %ver.addr = alloca ptr, align 8
  %status.addr = alloca ptr, align 8
  %str = alloca ptr, align 8
  %len = alloca i32, align 4
  store ptr %res, ptr %res.addr, align 8
  store ptr %key, ptr %key.addr, align 8
  store ptr %ver, ptr %ver.addr, align 8
  store ptr %status, ptr %status.addr, align 8
  %0 = load ptr, ptr %res.addr, align 8
  %1 = load ptr, ptr %key.addr, align 8
  %2 = load ptr, ptr %status.addr, align 8
  %call = call ptr @ures_getStringByKey_75(ptr noundef %0, ptr noundef %1, ptr noundef %len, ptr noundef %2)
  store ptr %call, ptr %str, align 8
  %3 = load ptr, ptr %status.addr, align 8
  %4 = load i32, ptr %3, align 4
  %call1 = call noundef signext i8 @_ZL9U_SUCCESS10UErrorCode(i32 noundef %4)
  %tobool = icmp ne i8 %call1, 0
  br i1 %tobool, label %if.then, label %if.end

if.then:                                          ; preds = %entry
  %5 = load ptr, ptr %ver.addr, align 8
  %6 = load ptr, ptr %str, align 8
  call void @u_versionFromUString_75(ptr noundef %5, ptr noundef %6)
  br label %if.end

if.end:                                           ; preds = %if.then, %entry
  ret void
}