; Function Attrs: mustprogress uwtable
define void @ures_getVersionByKey_75(ptr noundef %res, ptr noundef %key, ptr noundef %ver, ptr noundef %status) local_unnamed_addr #1 {
entry:
  %len = alloca i32, align 4
  %call = call ptr @ures_getStringByKey_75(ptr noundef %res, ptr noundef %key, ptr noundef nonnull %len, ptr noundef %status)
  %0 = load i32, ptr %status, align 4
  %cmp.i = icmp sgt i32 %0, 0
  br i1 %cmp.i, label %if.end, label %if.then

if.then:                                          ; preds = %entry
  call void @u_versionFromUString_75(ptr noundef %ver, ptr noundef %call)
  br label %if.end

if.end:                                           ; preds = %if.then, %entry
  ret void
}